; Function Attrs: mustprogress uwtable
define hidden void @_ZN5osgeo4proj5datum22GeodeticReferenceFrame15createEPSG_6267Ev(ptr dead_on_unwind noalias writable sret(%"class.dropbox::oxygen::nn.180") align 8 %0) local_unnamed_addr #0 align 2 personality ptr @__gxx_personality_v0 {
  %2 = alloca %"class.osgeo::proj::util::PropertyMap", align 8
  %3 = alloca %"class.osgeo::proj::util::optional", align 8
  call fastcc void @_ZN5osgeo4proj5datumL21createMapNameEPSGCodeEPKci(ptr dead_on_unwind noalias nonnull writable align 8 %2, ptr noundef nonnull @.str.35, i32 noundef 6267)
  store i8 0, ptr %3, align 8
  %4 = getelementptr inbounds i8, ptr %3, i64 8
  call void @_ZNSt7__cxx1112basic_stringIcSt11char_traitsIcESaIcEEC1Ev(ptr noundef nonnull align 8 dereferenceable(32) %4) #26
  call void @llvm.experimental.noalias.scope.decl(metadata !68)
  invoke void @_ZN5osgeo4proj5datum22GeodeticReferenceFrame14nn_make_sharedIS2_JRKN7dropbox6oxygen2nnISt10shared_ptrINS1_9EllipsoidEEEERKNS6_IS7_INS1_13PrimeMeridianEEEEEEENS6_IS7_IT_EEEDpOT0_(ptr dead_on_unwind writable sret(%"class.dropbox::oxygen::nn.180") align 8 %0, ptr noundef nonnull align 8 dereferenceable(16) @_ZN5osgeo4proj5datum9Ellipsoid11CLARKE_1866E, ptr noundef nonnull align 8 dereferenceable(16) @_ZN5osgeo4proj5datum13PrimeMeridian9GREENWICHE)
          to label %.noexc unwind label %15

.noexc:                                           ; preds = %1
  %5 = load ptr, ptr %0, align 8, !alias.scope !68
  %6 = getelementptr inbounds i8, ptr %5, i64 56
  %7 = load ptr, ptr %6, align 8
  %8 = load i8, ptr %3, align 8, !noalias !68
  %9 = and i8 %8, 1
  store i8 %9, ptr %7, align 8
  %10 = getelementptr inbounds i8, ptr %7, i64 8
  %11 = invoke noundef nonnull align 8 dereferenceable(32) ptr @_ZNSt7__cxx1112basic_stringIcSt11char_traitsIcESaIcEEaSERKS4_(ptr noundef nonnull align 8 dereferenceable(32) %10, ptr noundef nonnull align 8 dereferenceable(32) %4)
          to label %_ZN5osgeo4proj5datum5Datum9setAnchorERKNS0_4util8optionalINSt7__cxx1112basic_stringIcSt11char_traitsIcESaIcEEEEE.exit.i unwind label %13

_ZN5osgeo4proj5datum5Datum9setAnchorERKNS0_4util8optionalINSt7__cxx1112basic_stringIcSt11char_traitsIcESaIcEEEEE.exit.i: ; preds = %.noexc
  %12 = load ptr, ptr %0, align 8, !alias.scope !68
  invoke void @_ZN5osgeo4proj5datum5Datum13setPropertiesERKNS0_4util11PropertyMapE(ptr noundef nonnull align 8 dereferenceable(64) %12, ptr noundef nonnull align 8 dereferenceable(8) %2)
          to label %_ZN5osgeo4proj5datum22GeodeticReferenceFrame6createERKNS0_4util11PropertyMapERKN7dropbox6oxygen2nnISt10shared_ptrINS1_9EllipsoidEEEERKNS3_8optionalINSt7__cxx1112basic_stringIcSt11char_traitsIcESaIcEEEEERKNS9_ISA_INS1_13PrimeMeridianEEEE.exit unwind label %13

13:                                               ; preds = %_ZN5osgeo4proj5datum5Datum9setAnchorERKNS0_4util8optionalINSt7__cxx1112basic_stringIcSt11char_traitsIcESaIcEEEEE.exit.i, %.noexc
  %14 = landingpad { ptr, i32 }
          cleanup
  call void @_ZN7dropbox6oxygen2nnISt10shared_ptrIN5osgeo4proj5datum22GeodeticReferenceFrameEEED2Ev(ptr noundef nonnull align 8 dereferenceable(16) %0) #26
  br label %.body

_ZN5osgeo4proj5datum22GeodeticReferenceFrame6createERKNS0_4util11PropertyMapERKN7dropbox6oxygen2nnISt10shared_ptrINS1_9EllipsoidEEEERKNS3_8optionalINSt7__cxx1112basic_stringIcSt11char_traitsIcESaIcEEEEERKNS9_ISA_INS1_13PrimeMeridianEEEE.exit: ; preds = %_ZN5osgeo4proj5datum5Datum9setAnchorERKNS0_4util8optionalINSt7__cxx1112basic_stringIcSt11char_traitsIcESaIcEEEEE.exit.i
  call void @_ZNSt7__cxx1112basic_stringIcSt11char_traitsIcESaIcEED1Ev(ptr noundef nonnull align 8 dereferenceable(32) %4) #26
  call void @_ZN5osgeo4proj4util11PropertyMapD1Ev(ptr noundef nonnull align 8 dereferenceable(8) %2) #26
  ret void

15:                                               ; preds = %1
  %16 = landingpad { ptr, i32 }
          cleanup
  br label %.body

.body:                                            ; preds = %13, %15
  %eh.lpad-body = phi { ptr, i32 } [ %16, %15 ], [ %14, %13 ]
  call void @_ZNSt7__cxx1112basic_stringIcSt11char_traitsIcESaIcEED1Ev(ptr noundef nonnull align 8 dereferenceable(32) %4) #26
  call void @_ZN5osgeo4proj4util11PropertyMapD1Ev(ptr noundef nonnull align 8 dereferenceable(8) %2) #26
  resume { ptr, i32 } %eh.lpad-body
}